; Function Attrs: nounwind uwtable
define internal range(i32 -1, 1) i32 @H5C__json_write_destroy_fd_log_msg(ptr noundef readonly captures(none) %0, ptr noundef readonly captures(none) %1, ptr noundef readonly captures(none) %2, i32 noundef %3) #0 {
  %5 = load i8, ptr @H5C_init_g, align 1, !tbaa !3, !range !7, !noundef !8
  %6 = trunc nuw i8 %5 to i1
  %7 = load i8, ptr @H5_libterm_g, align 1, !range !7
  %8 = trunc nuw i8 %7 to i1
  %9 = xor i1 %8, true
  %10 = select i1 %6, i1 true, i1 %9
  br i1 %10, label %11, label %H5C__json_write_log_message.exit.thread, !prof !9

11:                                               ; preds = %4
  %12 = getelementptr inbounds nuw i8, ptr %0, i64 8
  %13 = load ptr, ptr %12, align 8, !tbaa !15
  %14 = tail call i64 @time(ptr noundef null) #10
  %15 = getelementptr inbounds nuw i8, ptr %1, i64 8
  %16 = load i64, ptr %15, align 8, !tbaa !22
  %17 = getelementptr inbounds nuw i8, ptr %2, i64 8
  %18 = load i64, ptr %17, align 8, !tbaa !22
  %19 = tail call i32 (ptr, i64, ptr, ...) @snprintf(ptr noundef nonnull dereferenceable(1) %13, i64 noundef 1024, ptr noundef nonnull @.str.31, i64 noundef %14, i64 noundef %16, i64 noundef %18, i32 noundef %3) #10
  %20 = load i8, ptr @H5C_init_g, align 1, !tbaa !3, !range !7, !noundef !8
  %21 = trunc nuw i8 %20 to i1
  %22 = load i8, ptr @H5_libterm_g, align 1, !range !7
  %23 = trunc nuw i8 %22 to i1
  %24 = xor i1 %23, true
  %25 = select i1 %21, i1 true, i1 %24
  br i1 %25, label %26, label %H5C__json_write_log_message.exit.thread, !prof !9

26:                                               ; preds = %11
  %27 = load ptr, ptr %12, align 8, !tbaa !15
  %28 = tail call i64 @strlen(ptr noundef nonnull dereferenceable(1) %27) #11
  %29 = trunc i64 %28 to i32
  %30 = load ptr, ptr %0, align 8, !tbaa !21
  %31 = tail call i32 (ptr, ptr, ...) @fprintf(ptr noundef %30, ptr noundef nonnull @.str.3, ptr noundef nonnull %27) #10
  %.not.i = icmp eq i32 %31, %29
  br i1 %.not.i, label %32, label %34

32:                                               ; preds = %26
  %33 = load ptr, ptr %12, align 8, !tbaa !15
  tail call void @llvm.memset.p0.i64(ptr align 1 %33, i8 0, i64 %28, i1 false)
  br label %H5C__json_write_log_message.exit.thread

34:                                               ; preds = %26
  %35 = load i64, ptr @H5E_CACHE_g, align 8, !tbaa !19
  %36 = load i64, ptr @H5E_LOGGING_g, align 8, !tbaa !19
  %37 = tail call i32 (ptr, ptr, i32, i64, i64, ptr, ...) @H5E_printf_stack(ptr noundef nonnull @.str, ptr noundef nonnull @__func__.H5C__json_write_log_message, i32 noundef 173, i64 noundef %35, i64 noundef %36, ptr noundef nonnull @.str.11) #10
  %38 = load i64, ptr @H5E_CACHE_g, align 8, !tbaa !19
  %39 = load i64, ptr @H5E_LOGGING_g, align 8, !tbaa !19
  %40 = tail call i32 (ptr, ptr, i32, i64, i64, ptr, ...) @H5E_printf_stack(ptr noundef nonnull @.str, ptr noundef nonnull @__func__.H5C__json_write_destroy_fd_log_msg, i32 noundef 1104, i64 noundef %38, i64 noundef %39, ptr noundef nonnull @.str.10) #10
  br label %H5C__json_write_log_message.exit.thread

H5C__json_write_log_message.exit.thread:          ; preds = %11, %32, %34, %4
  %.0 = phi i32 [ -1, %34 ], [ 0, %4 ], [ 0, %32 ], [ 0, %11 ]
  ret i32 %.0
}